; Function Attrs: nounwind uwtable
define noalias noundef ptr @SparseMatrix_sort(ptr noundef captures(address_is_null) %0) local_unnamed_addr #0 {
  %2 = tail call ptr @SparseMatrix_transpose(ptr noundef %0)
  %.not.i = icmp eq ptr %0, null
  br i1 %.not.i, label %SparseMatrix_delete.exit, label %3

3:                                                ; preds = %1
  %4 = getelementptr inbounds nuw i8, ptr %0, i64 24
  %5 = load ptr, ptr %4, align 8, !tbaa !3
  tail call void @free(ptr noundef %5) #17
  %6 = getelementptr inbounds nuw i8, ptr %0, i64 32
  %7 = load ptr, ptr %6, align 8, !tbaa !12
  tail call void @free(ptr noundef %7) #17
  %8 = getelementptr inbounds nuw i8, ptr %0, i64 40
  %9 = load ptr, ptr %8, align 8, !tbaa !13
  tail call void @free(ptr noundef %9) #17
  tail call void @free(ptr noundef nonnull %0) #17
  br label %SparseMatrix_delete.exit

SparseMatrix_delete.exit:                         ; preds = %1, %3
  %10 = tail call ptr @SparseMatrix_transpose(ptr noundef %2)
  %.not.i5 = icmp eq ptr %2, null
  br i1 %.not.i5, label %SparseMatrix_delete.exit6, label %11

11:                                               ; preds = %SparseMatrix_delete.exit
  %12 = getelementptr inbounds nuw i8, ptr %2, i64 24
  %13 = load ptr, ptr %12, align 8, !tbaa !3
  tail call void @free(ptr noundef %13) #17
  %14 = getelementptr inbounds nuw i8, ptr %2, i64 32
  %15 = load ptr, ptr %14, align 8, !tbaa !12
  tail call void @free(ptr noundef %15) #17
  %16 = getelementptr inbounds nuw i8, ptr %2, i64 40
  %17 = load ptr, ptr %16, align 8, !tbaa !13
  tail call void @free(ptr noundef %17) #17
  tail call void @free(ptr noundef nonnull %2) #17
  br label %SparseMatrix_delete.exit6

SparseMatrix_delete.exit6:                        ; preds = %SparseMatrix_delete.exit, %11
  ret ptr %10
}